target datalayout = "e-m:e-p270:32:32-p271:32:32-p272:64:64-i64:64-i128:128-f80:128-n8:16:32:64-S128"
target triple = "x86_64-pc-linux-gnu"

%struct._packet_info = type { ptr, ptr, i32, i32, %struct.nstime_t, %struct.nstime_t, %struct.nstime_t, i8, ptr, ptr, ptr, ptr, %struct._address, %struct._address, %struct._address, %struct._address, %struct._address, %struct._address, i32, ptr, i8, [3 x i8], %struct.anon, i32, i32, i32, i32, ptr, i8, ptr, ptr, i16, i16, i32, i32, i16, i32, i32, ptr, ptr, ptr, i8, i8, i16, i16, i16, i32, i16, i16, ptr, ptr, ptr, ptr, ptr, i32, i32 }
%struct.nstime_t = type { i64, i32 }
%struct._address = type { i32, i32, ptr, ptr }
%struct.anon = type { i8, [3 x i8] }

@hf_mip6_nemo_mnp_pfl = internal global i32 0, align 4
@hf_mip6_nemo_mnp_mnp = internal global i32 0, align 4
@ett_pmip6_opt_hnp = internal global i32 0, align 4
@proto_mip6_option_hnp = internal global i32 0, align 4
@.str.754 = private unnamed_addr constant [8 x i8] c": %s/%u\00", align 1

; Function Attrs: null_pointer_is_valid sspstrong uwtable
define internal i32 @dissect_mip6_network_prefix_option(ptr noundef %0, ptr noundef %1, ptr noundef %2, i32 noundef %3, i32 noundef %4, i32 noundef %5) #0 {
  %7 = alloca ptr, align 8
  %8 = alloca ptr, align 8
  %9 = alloca ptr, align 8
  %10 = alloca i32, align 4
  %11 = alloca i32, align 4
  %12 = alloca i32, align 4
  %13 = alloca ptr, align 8
  %14 = alloca ptr, align 8
  %15 = alloca i32, align 4
  %16 = alloca i32, align 4
  %17 = alloca i32, align 4
  store ptr %0, ptr %7, align 8
  store ptr %1, ptr %8, align 8
  store ptr %2, ptr %9, align 8
  store i32 %3, ptr %10, align 4
  store i32 %4, ptr %11, align 4
  store i32 %5, ptr %12, align 4
  call void @llvm.lifetime.start.p0(i64 8, ptr %13) #6
  call void @llvm.lifetime.start.p0(i64 8, ptr %14) #6
  call void @llvm.lifetime.start.p0(i64 4, ptr %15) #6
  %18 = load ptr, ptr %7, align 8
  %19 = call i32 @tvb_reported_length(ptr noundef %18)
  %20 = sub i32 %19, 2
  store i32 %20, ptr %15, align 4
  call void @llvm.lifetime.start.p0(i64 4, ptr %16) #6
  store i32 3, ptr %16, align 4
  call void @llvm.lifetime.start.p0(i64 4, ptr %17) #6
  %21 = load ptr, ptr %9, align 8
  %22 = load ptr, ptr %8, align 8
  %23 = load ptr, ptr %7, align 8
  %24 = load i32, ptr %10, align 4
  %25 = load i32, ptr %11, align 4
  %26 = load i32, ptr %15, align 4
  %27 = load i32, ptr %12, align 4
  %28 = call ptr @mip6_fixed_option_header(ptr noundef %21, ptr noundef %22, ptr noundef %23, i32 noundef %24, i32 noundef %25, ptr noundef %14, i32 noundef %26, i32 noundef %27)
  store ptr %28, ptr %13, align 8
  %29 = load ptr, ptr %13, align 8
  %30 = load i32, ptr @hf_mip6_nemo_mnp_pfl, align 4
  %31 = load ptr, ptr %7, align 8
  %32 = load i32, ptr %16, align 4
  %33 = call ptr @proto_tree_add_item_ret_uint(ptr noundef %29, i32 noundef %30, ptr noundef %31, i32 noundef %32, i32 noundef 1, i32 noundef 0, ptr noundef %17)
  %34 = load i32, ptr %16, align 4
  %35 = add i32 %34, 1
  store i32 %35, ptr %16, align 4
  %36 = load ptr, ptr %13, align 8
  %37 = load i32, ptr @hf_mip6_nemo_mnp_mnp, align 4
  %38 = load ptr, ptr %7, align 8
  %39 = load i32, ptr %16, align 4
  %40 = call ptr @proto_tree_add_item(ptr noundef %36, i32 noundef %37, ptr noundef %38, i32 noundef %39, i32 noundef 16, i32 noundef 0)
  %41 = load ptr, ptr %14, align 8
  %42 = load ptr, ptr %8, align 8
  %43 = getelementptr inbounds nuw %struct._packet_info, ptr %42, i32 0, i32 51
  %44 = load ptr, ptr %43, align 8
  %45 = load ptr, ptr %7, align 8
  %46 = load i32, ptr %16, align 4
  %47 = call ptr @tvb_address_to_str(ptr noundef %44, ptr noundef %45, i32 noundef 3, i32 noundef %46)
  %48 = load i32, ptr %17, align 4
  call void (ptr, ptr, ...) @proto_item_append_text(ptr noundef %41, ptr noundef @.str.754, ptr noundef %47, i32 noundef %48)
  %49 = load ptr, ptr %7, align 8
  %50 = call i32 @tvb_captured_length(ptr noundef %49)
  call void @llvm.lifetime.end.p0(i64 4, ptr %17) #6
  call void @llvm.lifetime.end.p0(i64 4, ptr %16) #6
  call void @llvm.lifetime.end.p0(i64 4, ptr %15) #6
  call void @llvm.lifetime.end.p0(i64 8, ptr %14) #6
  call void @llvm.lifetime.end.p0(i64 8, ptr %13) #6
  ret i32 %50
}

; Function Attrs: null_pointer_is_valid sspstrong uwtable
define internal i32 @dissect_mip6_opt_hnp(ptr noundef %0, ptr noundef %1, ptr noundef %2, ptr noundef %3) #0 {
  %5 = alloca ptr, align 8
  %6 = alloca ptr, align 8
  %7 = alloca ptr, align 8
  %8 = alloca ptr, align 8
  store ptr %0, ptr %5, align 8
  store ptr %1, ptr %6, align 8
  store ptr %2, ptr %7, align 8
  store ptr %3, ptr %8, align 8
  %9 = load ptr, ptr %5, align 8
  %10 = load ptr, ptr %6, align 8
  %11 = load ptr, ptr %7, align 8
  %12 = load i32, ptr @proto_mip6_option_hnp, align 4
  %13 = load i32, ptr @ett_pmip6_opt_hnp, align 4
  %14 = call i32 @dissect_mip6_network_prefix_option(ptr noundef %9, ptr noundef %10, ptr noundef %11, i32 noundef %12, i32 noundef %13, i32 noundef 18)
  ret i32 %14
}